ARM GAS  /tmp/ccn9eVkf.s 			page 1


   1              		.syntax unified
   2              		.cpu cortex-m4
   3              		.eabi_attribute 27, 1
   4              		.eabi_attribute 28, 1
   5              		.fpu fpv4-sp-d16
   6              		.eabi_attribute 20, 1
   7              		.eabi_attribute 21, 1
   8              		.eabi_attribute 23, 3
   9              		.eabi_attribute 24, 1
  10              		.eabi_attribute 25, 1
  11              		.eabi_attribute 26, 1
  12              		.eabi_attribute 30, 1
  13              		.eabi_attribute 34, 1
  14              		.eabi_attribute 18, 4
  15              		.thumb
  16              		.syntax unified
  17              		.file	"freertos.c"
  18              		.text
  19              	.Ltext0:
  20              		.cfi_sections	.debug_frame
  21              		.section	.text.vApplicationStackOverflowHook,"ax",%progbits
  22              		.align	2
  23              		.weak	vApplicationStackOverflowHook
  24              		.thumb
  25              		.thumb_func
  27              	vApplicationStackOverflowHook:
  28              	.LFB129:
  29              		.file 1 "Src/freertos.c"
   1:Src/freertos.c **** /* USER CODE BEGIN Header */
   2:Src/freertos.c **** /**
   3:Src/freertos.c ****   ******************************************************************************
   4:Src/freertos.c ****   * File Name          : freertos.c
   5:Src/freertos.c ****   * Description        : Code for freertos applications
   6:Src/freertos.c ****   ******************************************************************************
   7:Src/freertos.c ****   * This notice applies to any and all portions of this file
   8:Src/freertos.c ****   * that are not between comment pairs USER CODE BEGIN and
   9:Src/freertos.c ****   * USER CODE END. Other portions of this file, whether 
  10:Src/freertos.c ****   * inserted by the user or by software development tools
  11:Src/freertos.c ****   * are owned by their respective copyright owners.
  12:Src/freertos.c ****   *
  13:Src/freertos.c ****   * Copyright (c) 2019 STMicroelectronics International N.V. 
  14:Src/freertos.c ****   * All rights reserved.
  15:Src/freertos.c ****   *
  16:Src/freertos.c ****   * Redistribution and use in source and binary forms, with or without 
  17:Src/freertos.c ****   * modification, are permitted, provided that the following conditions are met:
  18:Src/freertos.c ****   *
  19:Src/freertos.c ****   * 1. Redistribution of source code must retain the above copyright notice, 
  20:Src/freertos.c ****   *    this list of conditions and the following disclaimer.
  21:Src/freertos.c ****   * 2. Redistributions in binary form must reproduce the above copyright notice,
  22:Src/freertos.c ****   *    this list of conditions and the following disclaimer in the documentation
  23:Src/freertos.c ****   *    and/or other materials provided with the distribution.
  24:Src/freertos.c ****   * 3. Neither the name of STMicroelectronics nor the names of other 
  25:Src/freertos.c ****   *    contributors to this software may be used to endorse or promote products 
  26:Src/freertos.c ****   *    derived from this software without specific written permission.
  27:Src/freertos.c ****   * 4. This software, including modifications and/or derivative works of this 
  28:Src/freertos.c ****   *    software, must execute solely and exclusively on microcontroller or
  29:Src/freertos.c ****   *    microprocessor devices manufactured by or for STMicroelectronics.
ARM GAS  /tmp/ccn9eVkf.s 			page 2


  30:Src/freertos.c ****   * 5. Redistribution and use of this software other than as permitted under 
  31:Src/freertos.c ****   *    this license is void and will automatically terminate your rights under 
  32:Src/freertos.c ****   *    this license. 
  33:Src/freertos.c ****   *
  34:Src/freertos.c ****   * THIS SOFTWARE IS PROVIDED BY STMICROELECTRONICS AND CONTRIBUTORS "AS IS" 
  35:Src/freertos.c ****   * AND ANY EXPRESS, IMPLIED OR STATUTORY WARRANTIES, INCLUDING, BUT NOT 
  36:Src/freertos.c ****   * LIMITED TO, THE IMPLIED WARRANTIES OF MERCHANTABILITY, FITNESS FOR A 
  37:Src/freertos.c ****   * PARTICULAR PURPOSE AND NON-INFRINGEMENT OF THIRD PARTY INTELLECTUAL PROPERTY
  38:Src/freertos.c ****   * RIGHTS ARE DISCLAIMED TO THE FULLEST EXTENT PERMITTED BY LAW. IN NO EVENT 
  39:Src/freertos.c ****   * SHALL STMICROELECTRONICS OR CONTRIBUTORS BE LIABLE FOR ANY DIRECT, INDIRECT,
  40:Src/freertos.c ****   * INCIDENTAL, SPECIAL, EXEMPLARY, OR CONSEQUENTIAL DAMAGES (INCLUDING, BUT NOT
  41:Src/freertos.c ****   * LIMITED TO, PROCUREMENT OF SUBSTITUTE GOODS OR SERVICES; LOSS OF USE, DATA, 
  42:Src/freertos.c ****   * OR PROFITS; OR BUSINESS INTERRUPTION) HOWEVER CAUSED AND ON ANY THEORY OF 
  43:Src/freertos.c ****   * LIABILITY, WHETHER IN CONTRACT, STRICT LIABILITY, OR TORT (INCLUDING 
  44:Src/freertos.c ****   * NEGLIGENCE OR OTHERWISE) ARISING IN ANY WAY OUT OF THE USE OF THIS SOFTWARE,
  45:Src/freertos.c ****   * EVEN IF ADVISED OF THE POSSIBILITY OF SUCH DAMAGE.
  46:Src/freertos.c ****   *
  47:Src/freertos.c ****   ******************************************************************************
  48:Src/freertos.c ****   */
  49:Src/freertos.c **** /* USER CODE END Header */
  50:Src/freertos.c **** 
  51:Src/freertos.c **** /* Includes ------------------------------------------------------------------*/
  52:Src/freertos.c **** #include "FreeRTOS.h"
  53:Src/freertos.c **** #include "task.h"
  54:Src/freertos.c **** #include "main.h"
  55:Src/freertos.c **** 
  56:Src/freertos.c **** /* Private includes ----------------------------------------------------------*/
  57:Src/freertos.c **** /* USER CODE BEGIN Includes */     
  58:Src/freertos.c **** 
  59:Src/freertos.c **** /* USER CODE END Includes */
  60:Src/freertos.c **** 
  61:Src/freertos.c **** /* Private typedef -----------------------------------------------------------*/
  62:Src/freertos.c **** /* USER CODE BEGIN PTD */
  63:Src/freertos.c **** 
  64:Src/freertos.c **** /* USER CODE END PTD */
  65:Src/freertos.c **** 
  66:Src/freertos.c **** /* Private define ------------------------------------------------------------*/
  67:Src/freertos.c **** /* USER CODE BEGIN PD */
  68:Src/freertos.c **** 
  69:Src/freertos.c **** /* USER CODE END PD */
  70:Src/freertos.c **** 
  71:Src/freertos.c **** /* Private macro -------------------------------------------------------------*/
  72:Src/freertos.c **** /* USER CODE BEGIN PM */
  73:Src/freertos.c **** 
  74:Src/freertos.c **** /* USER CODE END PM */
  75:Src/freertos.c **** 
  76:Src/freertos.c **** /* Private variables ---------------------------------------------------------*/
  77:Src/freertos.c **** /* USER CODE BEGIN Variables */
  78:Src/freertos.c **** 
  79:Src/freertos.c **** /* USER CODE END Variables */
  80:Src/freertos.c **** 
  81:Src/freertos.c **** /* Private function prototypes -----------------------------------------------*/
  82:Src/freertos.c **** /* USER CODE BEGIN FunctionPrototypes */
  83:Src/freertos.c ****    
  84:Src/freertos.c **** /* USER CODE END FunctionPrototypes */
  85:Src/freertos.c **** 
  86:Src/freertos.c **** /* GetIdleTaskMemory prototype (linked to static allocation support) */
ARM GAS  /tmp/ccn9eVkf.s 			page 3


  87:Src/freertos.c **** void vApplicationGetIdleTaskMemory( StaticTask_t **ppxIdleTaskTCBBuffer, StackType_t **ppxIdleTaskS
  88:Src/freertos.c **** 
  89:Src/freertos.c **** /* GetTimerTaskMemory prototype (linked to static allocation support) */
  90:Src/freertos.c **** void vApplicationGetTimerTaskMemory( StaticTask_t **ppxTimerTaskTCBBuffer, StackType_t **ppxTimerTa
  91:Src/freertos.c **** 
  92:Src/freertos.c **** /* Hook prototypes */
  93:Src/freertos.c **** void vApplicationStackOverflowHook(xTaskHandle xTask, signed char *pcTaskName);
  94:Src/freertos.c **** 
  95:Src/freertos.c **** /* USER CODE BEGIN 4 */
  96:Src/freertos.c **** __weak void vApplicationStackOverflowHook(xTaskHandle xTask, signed char *pcTaskName)
  97:Src/freertos.c **** {
  30              		.loc 1 97 0
  31              		.cfi_startproc
  32              		@ args = 0, pretend = 0, frame = 0
  33              		@ frame_needed = 0, uses_anonymous_args = 0
  34              		@ link register save eliminated.
  35              	.LVL0:
  36 0000 7047     		bx	lr
  37              		.cfi_endproc
  38              	.LFE129:
  40 0002 00BF     		.section	.text.vApplicationGetIdleTaskMemory,"ax",%progbits
  41              		.align	2
  42              		.global	vApplicationGetIdleTaskMemory
  43              		.thumb
  44              		.thumb_func
  46              	vApplicationGetIdleTaskMemory:
  47              	.LFB130:
  98:Src/freertos.c ****    /* Run time stack overflow checking is performed if
  99:Src/freertos.c ****    configCHECK_FOR_STACK_OVERFLOW is defined to 1 or 2. This hook function is
 100:Src/freertos.c ****    called if a stack overflow is detected. */
 101:Src/freertos.c **** }
 102:Src/freertos.c **** /* USER CODE END 4 */
 103:Src/freertos.c **** 
 104:Src/freertos.c **** /* USER CODE BEGIN GET_IDLE_TASK_MEMORY */
 105:Src/freertos.c **** static StaticTask_t xIdleTaskTCBBuffer;
 106:Src/freertos.c **** static StackType_t xIdleStack[configMINIMAL_STACK_SIZE];
 107:Src/freertos.c ****   
 108:Src/freertos.c **** void vApplicationGetIdleTaskMemory( StaticTask_t **ppxIdleTaskTCBBuffer, StackType_t **ppxIdleTaskS
 109:Src/freertos.c **** {
  48              		.loc 1 109 0
  49              		.cfi_startproc
  50              		@ args = 0, pretend = 0, frame = 0
  51              		@ frame_needed = 0, uses_anonymous_args = 0
  52              		@ link register save eliminated.
  53              	.LVL1:
 110:Src/freertos.c ****   *ppxIdleTaskTCBBuffer = &xIdleTaskTCBBuffer;
  54              		.loc 1 110 0
  55 0000 034B     		ldr	r3, .L3
  56 0002 0360     		str	r3, [r0]
 111:Src/freertos.c ****   *ppxIdleTaskStackBuffer = &xIdleStack[0];
  57              		.loc 1 111 0
  58 0004 034B     		ldr	r3, .L3+4
  59 0006 0B60     		str	r3, [r1]
 112:Src/freertos.c ****   *pulIdleTaskStackSize = configMINIMAL_STACK_SIZE;
  60              		.loc 1 112 0
  61 0008 4023     		movs	r3, #64
  62 000a 1360     		str	r3, [r2]
ARM GAS  /tmp/ccn9eVkf.s 			page 4


  63 000c 7047     		bx	lr
  64              	.L4:
  65 000e 00BF     		.align	2
  66              	.L3:
  67 0010 00000000 		.word	.LANCHOR0
  68 0014 00000000 		.word	.LANCHOR1
  69              		.cfi_endproc
  70              	.LFE130:
  72              		.section	.text.vApplicationGetTimerTaskMemory,"ax",%progbits
  73              		.align	2
  74              		.global	vApplicationGetTimerTaskMemory
  75              		.thumb
  76              		.thumb_func
  78              	vApplicationGetTimerTaskMemory:
  79              	.LFB131:
 113:Src/freertos.c ****   /* place for user code */
 114:Src/freertos.c **** }                   
 115:Src/freertos.c **** /* USER CODE END GET_IDLE_TASK_MEMORY */
 116:Src/freertos.c **** 
 117:Src/freertos.c **** /* USER CODE BEGIN GET_TIMER_TASK_MEMORY */
 118:Src/freertos.c **** static StaticTask_t xTimerTaskTCBBuffer;
 119:Src/freertos.c **** static StackType_t xTimerStack[configTIMER_TASK_STACK_DEPTH];
 120:Src/freertos.c ****   
 121:Src/freertos.c **** void vApplicationGetTimerTaskMemory( StaticTask_t **ppxTimerTaskTCBBuffer, StackType_t **ppxTimerTa
 122:Src/freertos.c **** {
  80              		.loc 1 122 0
  81              		.cfi_startproc
  82              		@ args = 0, pretend = 0, frame = 0
  83              		@ frame_needed = 0, uses_anonymous_args = 0
  84              		@ link register save eliminated.
  85              	.LVL2:
 123:Src/freertos.c ****   *ppxTimerTaskTCBBuffer = &xTimerTaskTCBBuffer;
  86              		.loc 1 123 0
  87 0000 034B     		ldr	r3, .L6
  88 0002 0360     		str	r3, [r0]
 124:Src/freertos.c ****   *ppxTimerTaskStackBuffer = &xTimerStack[0];
  89              		.loc 1 124 0
  90 0004 034B     		ldr	r3, .L6+4
  91 0006 0B60     		str	r3, [r1]
 125:Src/freertos.c ****   *pulTimerTaskStackSize = configTIMER_TASK_STACK_DEPTH;
  92              		.loc 1 125 0
  93 0008 8023     		movs	r3, #128
  94 000a 1360     		str	r3, [r2]
  95 000c 7047     		bx	lr
  96              	.L7:
  97 000e 00BF     		.align	2
  98              	.L6:
  99 0010 00000000 		.word	.LANCHOR2
 100 0014 00000000 		.word	.LANCHOR3
 101              		.cfi_endproc
 102              	.LFE131:
 104              		.section	.bss.xIdleStack,"aw",%nobits
 105              		.align	2
 106              		.set	.LANCHOR1,. + 0
 109              	xIdleStack:
 110 0000 00000000 		.space	256
 110      00000000 
ARM GAS  /tmp/ccn9eVkf.s 			page 5


 110      00000000 
 110      00000000 
 110      00000000 
 111              		.section	.bss.xTimerStack,"aw",%nobits
 112              		.align	2
 113              		.set	.LANCHOR3,. + 0
 116              	xTimerStack:
 117 0000 00000000 		.space	512
 117      00000000 
 117      00000000 
 117      00000000 
 117      00000000 
 118              		.section	.bss.xIdleTaskTCBBuffer,"aw",%nobits
 119              		.align	2
 120              		.set	.LANCHOR0,. + 0
 123              	xIdleTaskTCBBuffer:
 124 0000 00000000 		.space	84
 124      00000000 
 124      00000000 
 124      00000000 
 124      00000000 
 125              		.section	.bss.xTimerTaskTCBBuffer,"aw",%nobits
 126              		.align	2
 127              		.set	.LANCHOR2,. + 0
 130              	xTimerTaskTCBBuffer:
 131 0000 00000000 		.space	84
 131      00000000 
 131      00000000 
 131      00000000 
 131      00000000 
 132              		.text
 133              	.Letext0:
 134              		.file 2 "/home/deh/launchpad/gcc-arm-none-eabi-5_4-2016q3/arm-none-eabi/include/machine/_default_t
 135              		.file 3 "/home/deh/launchpad/gcc-arm-none-eabi-5_4-2016q3/arm-none-eabi/include/sys/_stdint.h"
 136              		.file 4 "Middlewares/Third_Party/FreeRTOS/Source/portable/GCC/ARM_CM4F/portmacro.h"
 137              		.file 5 "Middlewares/Third_Party/FreeRTOS/Source/include/FreeRTOS.h"
 138              		.file 6 "Middlewares/Third_Party/FreeRTOS/Source/include/task.h"
 139              		.file 7 "Drivers/CMSIS/Include/core_cm4.h"
ARM GAS  /tmp/ccn9eVkf.s 			page 6

