ARM GAS  /tmp/ccE5Q1Y7.s 			page 1


   1              		.syntax unified
   2              		.cpu cortex-m4
   3              		.eabi_attribute 27, 1
   4              		.eabi_attribute 28, 1
   5              		.fpu fpv4-sp-d16
   6              		.eabi_attribute 20, 1
   7              		.eabi_attribute 21, 1
   8              		.eabi_attribute 23, 3
   9              		.eabi_attribute 24, 1
  10              		.eabi_attribute 25, 1
  11              		.eabi_attribute 26, 1
  12              		.eabi_attribute 30, 1
  13              		.eabi_attribute 34, 1
  14              		.eabi_attribute 18, 4
  15              		.thumb
  16              		.syntax unified
  17              		.file	"gateway_comm.c"
  18              		.text
  19              	.Ltext0:
  20              		.cfi_sections	.debug_frame
  21              		.section	.text.gateway_comm_CANtoPC,"ax",%progbits
  22              		.align	2
  23              		.global	gateway_comm_CANtoPC
  24              		.thumb
  25              		.thumb_func
  27              	gateway_comm_CANtoPC:
  28              	.LFB129:
  29              		.file 1 "Ourwares/gateway_comm.c"
   1:Ourwares/gateway_comm.c **** /******************************************************************************
   2:Ourwares/gateway_comm.c **** * File Name          : gateway_comm.c
   3:Ourwares/gateway_comm.c **** * Date First Issued  : 01/19/2019
   4:Ourwares/gateway_comm.c **** * Board              : 
   5:Ourwares/gateway_comm.c **** * Description        : PC<->gateway 
   6:Ourwares/gateway_comm.c **** *******************************************************************************/
   7:Ourwares/gateway_comm.c **** 
   8:Ourwares/gateway_comm.c **** #include "gateway_comm.h"
   9:Ourwares/gateway_comm.c **** #include "USB_PC_gateway.h"
  10:Ourwares/gateway_comm.c **** 
  11:Ourwares/gateway_comm.c **** static struct PCTOGATEWAY pctogateway; 	// CAN->PC
  12:Ourwares/gateway_comm.c **** uint8_t seqct = 0;
  13:Ourwares/gateway_comm.c **** 
  14:Ourwares/gateway_comm.c **** /* ************************************************************************************** 
  15:Ourwares/gateway_comm.c ****  * uint16_t gateway_comm_CANtoPC(struct SERIALSENDTASKBCB** ppbcb, struct CANRCVBUF* pcan);
  16:Ourwares/gateway_comm.c ****  * @brief	: Convert CAN msg to ASCII/HEX and send via serial port
  17:Ourwares/gateway_comm.c ****  * @param	: ppbcb = Pointer to pointer to buffer control block and byte buffer
  18:Ourwares/gateway_comm.c ****  * @param	: pcan = CAN message
  19:Ourwares/gateway_comm.c ****  * @return	: OK
  20:Ourwares/gateway_comm.c ****  * ************************************************************************************** */
  21:Ourwares/gateway_comm.c **** uint16_t gateway_comm_CANtoPC(struct SERIALSENDTASKBCB** ppbcb, struct CANRCVBUF* pcan)
  22:Ourwares/gateway_comm.c **** {
  30              		.loc 1 22 0
  31              		.cfi_startproc
  32              		@ args = 0, pretend = 0, frame = 0
  33              		@ frame_needed = 0, uses_anonymous_args = 0
  34              	.LVL0:
  35 0000 38B5     		push	{r3, r4, r5, lr}
  36              	.LCFI0:
ARM GAS  /tmp/ccE5Q1Y7.s 			page 2


  37              		.cfi_def_cfa_offset 16
  38              		.cfi_offset 3, -16
  39              		.cfi_offset 4, -12
  40              		.cfi_offset 5, -8
  41              		.cfi_offset 14, -4
  23:Ourwares/gateway_comm.c **** 	pctogateway.mode_link = MODE_LINK;
  42              		.loc 1 23 0
  43 0002 084B     		ldr	r3, .L3
  44 0004 0222     		movs	r2, #2
  45 0006 83F83E20 		strb	r2, [r3, #62]
  24:Ourwares/gateway_comm.c **** 	pctogateway.cmprs.seq = seqct++;
  46              		.loc 1 24 0
  47 000a 074C     		ldr	r4, .L3+4
  48 000c 2278     		ldrb	r2, [r4]	@ zero_extendqisi2
  49 000e 551C     		adds	r5, r2, #1
  50 0010 2570     		strb	r5, [r4]
  51 0012 83F85E20 		strb	r2, [r3, #94]
  25:Ourwares/gateway_comm.c **** 	USB_toPC_msg_mode(ppbcb, &pctogateway, pcan); 	// Send to serial port
  52              		.loc 1 25 0
  53 0016 0A46     		mov	r2, r1
  54 0018 1946     		mov	r1, r3
  55              	.LVL1:
  56 001a FFF7FEFF 		bl	USB_toPC_msg_mode
  57              	.LVL2:
  26:Ourwares/gateway_comm.c **** 	return 0;
  27:Ourwares/gateway_comm.c **** }
  58              		.loc 1 27 0
  59 001e 0020     		movs	r0, #0
  60 0020 38BD     		pop	{r3, r4, r5, pc}
  61              	.L4:
  62 0022 00BF     		.align	2
  63              	.L3:
  64 0024 00000000 		.word	.LANCHOR0
  65 0028 00000000 		.word	.LANCHOR1
  66              		.cfi_endproc
  67              	.LFE129:
  69              		.global	seqct
  70              		.section	.bss.pctogateway,"aw",%nobits
  71              		.align	2
  72              		.set	.LANCHOR0,. + 0
  75              	pctogateway:
  76 0000 00000000 		.space	96
  76      00000000 
  76      00000000 
  76      00000000 
  76      00000000 
  77              		.section	.bss.seqct,"aw",%nobits
  78              		.set	.LANCHOR1,. + 0
  81              	seqct:
  82 0000 00       		.space	1
  83              		.text
  84              	.Letext0:
  85              		.file 2 "/home/deh/launchpad/gcc-arm-none-eabi-5_4-2016q3/arm-none-eabi/include/machine/_default_t
  86              		.file 3 "/home/deh/launchpad/gcc-arm-none-eabi-5_4-2016q3/arm-none-eabi/include/sys/_stdint.h"
  87              		.file 4 "Ourwares/common_misc.h"
  88              		.file 5 "Ourwares/common_can.h"
  89              		.file 6 "Middlewares/Third_Party/FreeRTOS/Source/include/task.h"
ARM GAS  /tmp/ccE5Q1Y7.s 			page 3


  90              		.file 7 "Middlewares/Third_Party/FreeRTOS/Source/include/queue.h"
  91              		.file 8 "Middlewares/Third_Party/FreeRTOS/Source/include/semphr.h"
  92              		.file 9 "Middlewares/Third_Party/FreeRTOS/Source/CMSIS_RTOS/cmsis_os.h"
  93              		.file 10 "Drivers/CMSIS/Device/ST/STM32F4xx/Include/stm32f407xx.h"
  94              		.file 11 "Drivers/STM32F4xx_HAL_Driver/Inc/stm32f4xx_hal_def.h"
  95              		.file 12 "Drivers/STM32F4xx_HAL_Driver/Inc/stm32f4xx_hal_dma.h"
  96              		.file 13 "Drivers/STM32F4xx_HAL_Driver/Inc/stm32f4xx_hal_uart.h"
  97              		.file 14 "Ourwares/SerialTaskSend.h"
  98              		.file 15 "Drivers/CMSIS/Include/core_cm4.h"
  99              		.file 16 "Ourwares/USB_PC_gateway.h"
ARM GAS  /tmp/ccE5Q1Y7.s 			page 4

