ARM GAS  /tmp/ccM0M2hf.s 			page 1


   1              		.syntax unified
   2              		.cpu cortex-m4
   3              		.eabi_attribute 27, 1
   4              		.eabi_attribute 28, 1
   5              		.fpu fpv4-sp-d16
   6              		.eabi_attribute 20, 1
   7              		.eabi_attribute 21, 1
   8              		.eabi_attribute 23, 3
   9              		.eabi_attribute 24, 1
  10              		.eabi_attribute 25, 1
  11              		.eabi_attribute 26, 1
  12              		.eabi_attribute 30, 1
  13              		.eabi_attribute 34, 1
  14              		.eabi_attribute 18, 4
  15              		.thumb
  16              		.syntax unified
  17              		.file	"iir_f1.c"
  18              		.text
  19              	.Ltext0:
  20              		.cfi_sections	.debug_frame
  21              		.section	.text.iir_f1_f,"ax",%progbits
  22              		.align	2
  23              		.global	iir_f1_f
  24              		.thumb
  25              		.thumb_func
  27              	iir_f1_f:
  28              	.LFB0:
  29              		.file 1 "Ourtasks/iir_f1.c"
   1:Ourtasks/iir_f1.c **** /******************************************************************************
   2:Ourtasks/iir_f1.c **** * File Name          : iir_f1.c
   3:Ourtasks/iir_f1.c **** * Date First Issued  : 03/10/2019
   4:Ourtasks/iir_f1.c **** * Board              : DiscoveryF4
   5:Ourtasks/iir_f1.c **** * Description        : IIR filter: singled pole, float
   6:Ourtasks/iir_f1.c **** *******************************************************************************/
   7:Ourtasks/iir_f1.c **** 
   8:Ourtasks/iir_f1.c **** #include "iir_f1.h"
   9:Ourtasks/iir_f1.c **** 
  10:Ourtasks/iir_f1.c **** /* *************************************************************************
  11:Ourtasks/iir_f1.c ****  * float iir_f1_f(struct FILTERIIRF1* pfc, float flt);
  12:Ourtasks/iir_f1.c ****  * @brief	: filter input value 
  13:Ourtasks/iir_f1.c ****  * @param	: pfc = Pointer to struct holding fixed parameters and intermediate variables
  14:Ourtasks/iir_f1.c ****  * @param	: flt = float new value input to filter
  15:Ourtasks/iir_f1.c ****  * @param	: filter output, given new input
  16:Ourtasks/iir_f1.c ****  * *************************************************************************/
  17:Ourtasks/iir_f1.c **** float iir_f1_f(struct FILTERIIRF1* pfc, float flt)
  18:Ourtasks/iir_f1.c **** {
  30              		.loc 1 18 0
  31              		.cfi_startproc
  32              		@ args = 0, pretend = 0, frame = 0
  33              		@ frame_needed = 0, uses_anonymous_args = 0
  34              		@ link register save eliminated.
  35              	.LVL0:
  19:Ourtasks/iir_f1.c **** 	if (pfc->skipctr > 0)
  36              		.loc 1 19 0
  37 0000 8389     		ldrh	r3, [r0, #12]
  38 0002 43B1     		cbz	r3, .L2
  20:Ourtasks/iir_f1.c **** 	{ // Here, skip starting filter until a few readings
ARM GAS  /tmp/ccM0M2hf.s 			page 2


  21:Ourtasks/iir_f1.c **** 		pfc->skipctr -= 1;
  39              		.loc 1 21 0
  40 0004 013B     		subs	r3, r3, #1
  41 0006 8381     		strh	r3, [r0, #12]	@ movhi
  22:Ourtasks/iir_f1.c **** 		pfc->z1 = flt / pfc->onemcoef;
  42              		.loc 1 22 0
  43 0008 90ED017A 		vldr.32	s14, [r0, #4]
  44 000c C0EE077A 		vdiv.f32	s15, s0, s14
  45 0010 C0ED027A 		vstr.32	s15, [r0, #8]
  46 0014 09E0     		b	.L3
  47              	.L2:
  23:Ourtasks/iir_f1.c **** 	}
  24:Ourtasks/iir_f1.c **** 	else
  25:Ourtasks/iir_f1.c **** 	{
  26:Ourtasks/iir_f1.c **** 		pfc->z1 = (flt + pfc->z1 * pfc->coef);
  48              		.loc 1 26 0
  49 0016 D0ED027A 		vldr.32	s15, [r0, #8]
  50 001a 90ED007A 		vldr.32	s14, [r0]
  51 001e 67EE877A 		vmul.f32	s15, s15, s14
  52 0022 30EE270A 		vadd.f32	s0, s0, s15
  53              	.LVL1:
  54 0026 80ED020A 		vstr.32	s0, [r0, #8]
  55              	.L3:
  27:Ourtasks/iir_f1.c **** 	}
  28:Ourtasks/iir_f1.c **** 	return ( pfc->z1 * pfc->onemcoef);
  56              		.loc 1 28 0
  57 002a 90ED020A 		vldr.32	s0, [r0, #8]
  58 002e D0ED017A 		vldr.32	s15, [r0, #4]
  29:Ourtasks/iir_f1.c **** }
  59              		.loc 1 29 0
  60 0032 20EE270A 		vmul.f32	s0, s0, s15
  61 0036 7047     		bx	lr
  62              		.cfi_endproc
  63              	.LFE0:
  65              		.global	__aeabi_ul2f
  66              		.section	.text.iir_f1_64b,"ax",%progbits
  67              		.align	2
  68              		.global	iir_f1_64b
  69              		.thumb
  70              		.thumb_func
  72              	iir_f1_64b:
  73              	.LFB1:
  30:Ourtasks/iir_f1.c **** /* *************************************************************************
  31:Ourtasks/iir_f1.c ****  * float iir_f1_64b(struct FILTERIIRF1* pfc, uint64_t* pval);
  32:Ourtasks/iir_f1.c ****  * @brief	: filter input value 
  33:Ourtasks/iir_f1.c ****  * @param	: pfc = Pointer to struct holding fixed parameters and intermediate variables
  34:Ourtasks/iir_f1.c ****  * @param	: pval = Pointer to 64b new value input to filter
  35:Ourtasks/iir_f1.c ****  * @param	: filter output, given new input
  36:Ourtasks/iir_f1.c ****  * *************************************************************************/
  37:Ourtasks/iir_f1.c **** float iir_f1_64b(struct FILTERIIRF1* pfc, uint64_t* pval)	
  38:Ourtasks/iir_f1.c **** {
  74              		.loc 1 38 0
  75              		.cfi_startproc
  76              		@ args = 0, pretend = 0, frame = 0
  77              		@ frame_needed = 0, uses_anonymous_args = 0
  78              	.LVL2:
  79 0000 10B5     		push	{r4, lr}
ARM GAS  /tmp/ccM0M2hf.s 			page 3


  80              	.LCFI0:
  81              		.cfi_def_cfa_offset 8
  82              		.cfi_offset 4, -8
  83              		.cfi_offset 14, -4
  84 0002 0446     		mov	r4, r0
  39:Ourtasks/iir_f1.c **** 	return iir_f1_f( pfc, (float)(*pval) );
  85              		.loc 1 39 0
  86 0004 D1E90001 		ldrd	r0, [r1]
  87              	.LVL3:
  88 0008 FFF7FEFF 		bl	__aeabi_ul2f
  89              	.LVL4:
  90 000c 00EE100A 		vmov	s0, r0
  91 0010 2046     		mov	r0, r4
  92 0012 FFF7FEFF 		bl	iir_f1_f
  93              	.LVL5:
  40:Ourtasks/iir_f1.c **** }
  94              		.loc 1 40 0
  95 0016 10BD     		pop	{r4, pc}
  96              		.cfi_endproc
  97              	.LFE1:
  99              		.section	.text.iir_f1_32b,"ax",%progbits
 100              		.align	2
 101              		.global	iir_f1_32b
 102              		.thumb
 103              		.thumb_func
 105              	iir_f1_32b:
 106              	.LFB2:
  41:Ourtasks/iir_f1.c **** /* *************************************************************************
  42:Ourtasks/iir_f1.c ****  * float iir_f1_32b(struct FILTERIIRF1* pfc, uint32_t val);
  43:Ourtasks/iir_f1.c ****  * @brief	: filter input value 
  44:Ourtasks/iir_f1.c ****  * @param	: pfc = Pointer to struct holding fixed parameters and intermediate variables
  45:Ourtasks/iir_f1.c ****  * @param	: pval = Pointer to 32b new value input to filter
  46:Ourtasks/iir_f1.c ****  * @param	: filter output, given new input
  47:Ourtasks/iir_f1.c ****  * *************************************************************************/
  48:Ourtasks/iir_f1.c **** float iir_f1_32b(struct FILTERIIRF1* pfc, uint32_t val)
  49:Ourtasks/iir_f1.c **** {
 107              		.loc 1 49 0
 108              		.cfi_startproc
 109              		@ args = 0, pretend = 0, frame = 0
 110              		@ frame_needed = 0, uses_anonymous_args = 0
 111              	.LVL6:
 112 0000 08B5     		push	{r3, lr}
 113              	.LCFI1:
 114              		.cfi_def_cfa_offset 8
 115              		.cfi_offset 3, -8
 116              		.cfi_offset 14, -4
  50:Ourtasks/iir_f1.c **** 	return iir_f1_f( pfc, (float)(val) );
 117              		.loc 1 50 0
 118 0002 07EE901A 		vmov	s15, r1	@ int
 119 0006 B8EE670A 		vcvt.f32.u32	s0, s15
 120 000a FFF7FEFF 		bl	iir_f1_f
 121              	.LVL7:
  51:Ourtasks/iir_f1.c **** }
 122              		.loc 1 51 0
 123 000e 08BD     		pop	{r3, pc}
 124              		.cfi_endproc
 125              	.LFE2:
ARM GAS  /tmp/ccM0M2hf.s 			page 4


 127              		.text
 128              	.Letext0:
 129              		.file 2 "/home/deh/launchpad/gcc-arm-none-eabi-5_4-2016q3/arm-none-eabi/include/machine/_default_t
 130              		.file 3 "/home/deh/launchpad/gcc-arm-none-eabi-5_4-2016q3/arm-none-eabi/include/sys/_stdint.h"
 131              		.file 4 "Ourtasks/iir_f1.h"
ARM GAS  /tmp/ccM0M2hf.s 			page 5

