ARM GAS  /tmp/cc71fq4T.s 			page 1


   1              		.syntax unified
   2              		.cpu cortex-m4
   3              		.eabi_attribute 27, 1
   4              		.eabi_attribute 28, 1
   5              		.fpu fpv4-sp-d16
   6              		.eabi_attribute 20, 1
   7              		.eabi_attribute 21, 1
   8              		.eabi_attribute 23, 3
   9              		.eabi_attribute 24, 1
  10              		.eabi_attribute 25, 1
  11              		.eabi_attribute 26, 1
  12              		.eabi_attribute 30, 1
  13              		.eabi_attribute 34, 1
  14              		.eabi_attribute 18, 4
  15              		.thumb
  16              		.syntax unified
  17              		.file	"payload_extract.c"
  18              		.text
  19              	.Ltext0:
  20              		.cfi_sections	.debug_frame
  21              		.section	.text.payload_extract,"ax",%progbits
  22              		.align	2
  23              		.global	payload_extract
  24              		.thumb
  25              		.thumb_func
  27              	payload_extract:
  28              	.LFB129:
  29              		.file 1 "Ourwares/payload_extract.c"
   1:Ourwares/payload_extract.c **** /******************************************************************************
   2:Ourwares/payload_extract.c **** * File Name          : payload_extract.c
   3:Ourwares/payload_extract.c **** * Date First Issued  : 02/23/2019
   4:Ourwares/payload_extract.c **** * Description        : Extract payload from CAN msg
   5:Ourwares/payload_extract.c **** *******************************************************************************/
   6:Ourwares/payload_extract.c **** 
   7:Ourwares/payload_extract.c **** #include "payload_extract.h"
   8:Ourwares/payload_extract.c **** 
   9:Ourwares/payload_extract.c **** /* Definitions of payload type generated from database. */
  10:Ourwares/payload_extract.c **** #include "../../../GliderWinchCommons/embed/svn_common/trunk/db/gen_db.h"
  11:Ourwares/payload_extract.c **** 
  12:Ourwares/payload_extract.c **** /* NOTE:
  13:Ourwares/payload_extract.c **** If the CAN msg does not have a DLC big enough to accommodate the payload
  14:Ourwares/payload_extract.c **** format designated the mailbox pre8 and union are not updated, nor is the
  15:Ourwares/payload_extract.c **** update counter incremented.  The DTW in the CAN msg will have been updated
  16:Ourwares/payload_extract.c **** when the CAN msg was received.  
  17:Ourwares/payload_extract.c **** 
  18:Ourwares/payload_extract.c **** Therefore, checking for a stale CAN reading by checking only the DTW could 
  19:Ourwares/payload_extract.c **** result in stale readings not being detected if the DLC reading is wrong.  This
  20:Ourwares/payload_extract.c **** situation would be some sort of software error whereby "someone" is sends a
  21:Ourwares/payload_extract.c **** CAN msg with a bogus CAN id, or payload that is incorrect.
  22:Ourwares/payload_extract.c **** 
  23:Ourwares/payload_extract.c **** The CAN msg embedded in the mailbox is always copied from the circular buffer
  24:Ourwares/payload_extract.c **** receiving incoming CAN msgs.
  25:Ourwares/payload_extract.c **** 
  26:Ourwares/payload_extract.c **** The following are not implemented, however the payload will be loaded into
  27:Ourwares/payload_extract.c **** the eight byte union--
  28:Ourwares/payload_extract.c **** F34F	3/4 float
  29:Ourwares/payload_extract.c **** HF    1/2 float
ARM GAS  /tmp/cc71fq4T.s 			page 2


  30:Ourwares/payload_extract.c **** LAT_LON_HT
  31:Ourwares/payload_extract.c **** */
  32:Ourwares/payload_extract.c **** 
  33:Ourwares/payload_extract.c **** /* ************************************************************************* 
  34:Ourwares/payload_extract.c ****  * void payload_extract(struct MAILBOXCAN* pmbx, struct CANRCVBUFN* pncan);
  35:Ourwares/payload_extract.c ****  *	@brief	: Lookup CAN ID and load mailbox with extract payload reading(s)
  36:Ourwares/payload_extract.c ****  * @param	: pmbx  = pointer to mailbox
  37:Ourwares/payload_extract.c ****  * @param	: pncan = pointer to CAN msg in can_face.c circular buffer
  38:Ourwares/payload_extract.c ****  * *************************************************************************/
  39:Ourwares/payload_extract.c **** void payload_extract(struct MAILBOXCAN* pmbx, struct CANRCVBUFN* pncan)
  40:Ourwares/payload_extract.c **** {
  30              		.loc 1 40 0
  31              		.cfi_startproc
  32              		@ args = 0, pretend = 0, frame = 0
  33              		@ frame_needed = 0, uses_anonymous_args = 0
  34              		@ link register save eliminated.
  35              	.LVL0:
  36 0000 30B4     		push	{r4, r5}
  37              	.LCFI0:
  38              		.cfi_def_cfa_offset 8
  39              		.cfi_offset 4, -8
  40              		.cfi_offset 5, -4
  41:Ourwares/payload_extract.c **** 	switch (pmbx->paytype)
  41              		.loc 1 41 0
  42 0002 90F83830 		ldrb	r3, [r0, #56]	@ zero_extendqisi2
  43 0006 013B     		subs	r3, r3, #1
  44 0008 192B     		cmp	r3, #25
  45 000a 7FD8     		bhi	.L2
  46 000c DFE803F0 		tbb	[pc, r3]
  47              	.L4:
  48 0010 0D       		.byte	(.L3-.L4)/2
  49 0011 73       		.byte	(.L5-.L4)/2
  50 0012 0D       		.byte	(.L3-.L4)/2
  51 0013 73       		.byte	(.L5-.L4)/2
  52 0014 34       		.byte	(.L6-.L4)/2
  53 0015 0D       		.byte	(.L3-.L4)/2
  54 0016 73       		.byte	(.L5-.L4)/2
  55 0017 34       		.byte	(.L6-.L4)/2
  56 0018 7E       		.byte	(.L2-.L4)/2
  57 0019 7E       		.byte	(.L2-.L4)/2
  58 001a 16       		.byte	(.L7-.L4)/2
  59 001b 25       		.byte	(.L8-.L4)/2
  60 001c 25       		.byte	(.L8-.L4)/2
  61 001d 25       		.byte	(.L8-.L4)/2
  62 001e 46       		.byte	(.L9-.L4)/2
  63 001f 46       		.byte	(.L9-.L4)/2
  64 0020 46       		.byte	(.L9-.L4)/2
  65 0021 7E       		.byte	(.L2-.L4)/2
  66 0022 7E       		.byte	(.L2-.L4)/2
  67 0023 7E       		.byte	(.L2-.L4)/2
  68 0024 34       		.byte	(.L6-.L4)/2
  69 0025 7E       		.byte	(.L2-.L4)/2
  70 0026 7E       		.byte	(.L2-.L4)/2
  71 0027 34       		.byte	(.L6-.L4)/2
  72 0028 7E       		.byte	(.L2-.L4)/2
  73 0029 5B       		.byte	(.L10-.L4)/2
  74              		.p2align 1
ARM GAS  /tmp/cc71fq4T.s 			page 3


  75              	.L3:
  42:Ourwares/payload_extract.c **** 	{
  43:Ourwares/payload_extract.c **** 	case FF:
  44:Ourwares/payload_extract.c **** 	case U32:
  45:Ourwares/payload_extract.c **** 	case S32:
  46:Ourwares/payload_extract.c **** 		if (pmbx->ncan.can.dlc >= 4)
  76              		.loc 1 46 0
  77 002a 4368     		ldr	r3, [r0, #4]
  78 002c 032B     		cmp	r3, #3
  79 002e 74D9     		bls	.L11
  47:Ourwares/payload_extract.c **** 		{ // Place 1st four bytes of payload in union
  48:Ourwares/payload_extract.c **** 			pmbx->mbx.u.i32[0] = pmbx->ncan.can.cd.ui[0];
  80              		.loc 1 48 0
  81 0030 8368     		ldr	r3, [r0, #8]
  82 0032 8361     		str	r3, [r0, #24]
  49:Ourwares/payload_extract.c **** 			pmbx->ctr +=1 ;
  83              		.loc 1 49 0
  84 0034 436B     		ldr	r3, [r0, #52]
  85 0036 0133     		adds	r3, r3, #1
  86 0038 4363     		str	r3, [r0, #52]
  87 003a 6EE0     		b	.L11
  88              	.L7:
  50:Ourwares/payload_extract.c **** 		}
  51:Ourwares/payload_extract.c **** 		break;	
  52:Ourwares/payload_extract.c **** 	case xFF:
  53:Ourwares/payload_extract.c **** 		if (pmbx->ncan.can.dlc >= 5)
  89              		.loc 1 53 0
  90 003c 4368     		ldr	r3, [r0, #4]
  91 003e 042B     		cmp	r3, #4
  92 0040 6BD9     		bls	.L11
  54:Ourwares/payload_extract.c **** 		{ // Place [1]-[4] of payload in union 
  55:Ourwares/payload_extract.c **** 			pmbx->mbx.u.i8[0] = pmbx->ncan.can.cd.uc[1];
  93              		.loc 1 55 0
  94 0042 437A     		ldrb	r3, [r0, #9]	@ zero_extendqisi2
  95 0044 0376     		strb	r3, [r0, #24]
  56:Ourwares/payload_extract.c **** 			pmbx->mbx.u.i8[1] = pmbx->ncan.can.cd.uc[2];
  96              		.loc 1 56 0
  97 0046 837A     		ldrb	r3, [r0, #10]	@ zero_extendqisi2
  98 0048 4376     		strb	r3, [r0, #25]
  57:Ourwares/payload_extract.c **** 			pmbx->mbx.u.i8[2] = pmbx->ncan.can.cd.uc[3];
  99              		.loc 1 57 0
 100 004a C37A     		ldrb	r3, [r0, #11]	@ zero_extendqisi2
 101 004c 8376     		strb	r3, [r0, #26]
  58:Ourwares/payload_extract.c **** 			pmbx->mbx.u.i8[3] = pmbx->ncan.can.cd.uc[4];
 102              		.loc 1 58 0
 103 004e 037B     		ldrb	r3, [r0, #12]	@ zero_extendqisi2
 104 0050 C376     		strb	r3, [r0, #27]
  59:Ourwares/payload_extract.c **** 			pmbx->ctr +=1 ;
 105              		.loc 1 59 0
 106 0052 436B     		ldr	r3, [r0, #52]
 107 0054 0133     		adds	r3, r3, #1
 108 0056 4363     		str	r3, [r0, #52]
 109 0058 5FE0     		b	.L11
 110              	.L8:
  60:Ourwares/payload_extract.c **** 		}
  61:Ourwares/payload_extract.c **** 		break;	
  62:Ourwares/payload_extract.c **** 	case xxFF:
ARM GAS  /tmp/cc71fq4T.s 			page 4


  63:Ourwares/payload_extract.c **** 	case xxU32:
  64:Ourwares/payload_extract.c **** 	case xxS32:
  65:Ourwares/payload_extract.c **** 		if (pmbx->ncan.can.dlc >= 6)
 111              		.loc 1 65 0
 112 005a 4368     		ldr	r3, [r0, #4]
 113 005c 052B     		cmp	r3, #5
 114 005e 5CD9     		bls	.L11
  66:Ourwares/payload_extract.c **** 		{ // Place [2]-[5] of payload in union 
  67:Ourwares/payload_extract.c **** 			pmbx->mbx.u.i8[0] = pmbx->ncan.can.cd.uc[2];
 115              		.loc 1 67 0
 116 0060 837A     		ldrb	r3, [r0, #10]	@ zero_extendqisi2
 117 0062 0376     		strb	r3, [r0, #24]
  68:Ourwares/payload_extract.c **** 			pmbx->mbx.u.i8[1] = pmbx->ncan.can.cd.uc[3];
 118              		.loc 1 68 0
 119 0064 C37A     		ldrb	r3, [r0, #11]	@ zero_extendqisi2
 120 0066 4376     		strb	r3, [r0, #25]
  69:Ourwares/payload_extract.c **** 			pmbx->mbx.u.i8[2] = pmbx->ncan.can.cd.uc[4];
 121              		.loc 1 69 0
 122 0068 037B     		ldrb	r3, [r0, #12]	@ zero_extendqisi2
 123 006a 8376     		strb	r3, [r0, #26]
  70:Ourwares/payload_extract.c **** 			pmbx->mbx.u.i8[3] = pmbx->ncan.can.cd.uc[5];
 124              		.loc 1 70 0
 125 006c 437B     		ldrb	r3, [r0, #13]	@ zero_extendqisi2
 126 006e C376     		strb	r3, [r0, #27]
  71:Ourwares/payload_extract.c **** 			pmbx->ctr +=1 ;
 127              		.loc 1 71 0
 128 0070 436B     		ldr	r3, [r0, #52]
 129 0072 0133     		adds	r3, r3, #1
 130 0074 4363     		str	r3, [r0, #52]
 131 0076 50E0     		b	.L11
 132              	.L6:
  72:Ourwares/payload_extract.c **** 		}
  73:Ourwares/payload_extract.c **** 		break;
  74:Ourwares/payload_extract.c **** 	case U8_FF:
  75:Ourwares/payload_extract.c **** 	case U8_U32:
  76:Ourwares/payload_extract.c **** 	case U8_S32:
  77:Ourwares/payload_extract.c **** 	case UNIXTIME:
  78:Ourwares/payload_extract.c **** 		if (pmbx->ncan.can.dlc >= 5)
 133              		.loc 1 78 0
 134 0078 4368     		ldr	r3, [r0, #4]
 135 007a 042B     		cmp	r3, #4
 136 007c 4DD9     		bls	.L11
  79:Ourwares/payload_extract.c **** 		{ 
  80:Ourwares/payload_extract.c **** 			pmbx->mbx.pre8[0] = pmbx->ncan.can.cd.uc[0];
 137              		.loc 1 80 0
 138 007e 037A     		ldrb	r3, [r0, #8]	@ zero_extendqisi2
 139 0080 80F82830 		strb	r3, [r0, #40]
  81:Ourwares/payload_extract.c **** 			// Place [2]-[5] of payload in union 
  82:Ourwares/payload_extract.c **** 			pmbx->mbx.u.i8[0] = pmbx->ncan.can.cd.uc[1];
 140              		.loc 1 82 0
 141 0084 437A     		ldrb	r3, [r0, #9]	@ zero_extendqisi2
 142 0086 0376     		strb	r3, [r0, #24]
  83:Ourwares/payload_extract.c **** 			pmbx->mbx.u.i8[1] = pmbx->ncan.can.cd.uc[2];
 143              		.loc 1 83 0
 144 0088 837A     		ldrb	r3, [r0, #10]	@ zero_extendqisi2
 145 008a 4376     		strb	r3, [r0, #25]
  84:Ourwares/payload_extract.c **** 			pmbx->mbx.u.i8[2] = pmbx->ncan.can.cd.uc[3];
ARM GAS  /tmp/cc71fq4T.s 			page 5


 146              		.loc 1 84 0
 147 008c C37A     		ldrb	r3, [r0, #11]	@ zero_extendqisi2
 148 008e 8376     		strb	r3, [r0, #26]
  85:Ourwares/payload_extract.c **** 			pmbx->mbx.u.i8[3] = pmbx->ncan.can.cd.uc[4];
 149              		.loc 1 85 0
 150 0090 037B     		ldrb	r3, [r0, #12]	@ zero_extendqisi2
 151 0092 C376     		strb	r3, [r0, #27]
  86:Ourwares/payload_extract.c **** 			pmbx->ctr +=1 ;		
 152              		.loc 1 86 0
 153 0094 436B     		ldr	r3, [r0, #52]
 154 0096 0133     		adds	r3, r3, #1
 155 0098 4363     		str	r3, [r0, #52]
 156 009a 3EE0     		b	.L11
 157              	.L9:
  87:Ourwares/payload_extract.c **** 		}
  88:Ourwares/payload_extract.c **** 		break;	
  89:Ourwares/payload_extract.c **** 	case U8_U8_FF:
  90:Ourwares/payload_extract.c **** 	case U8_U8_U32:
  91:Ourwares/payload_extract.c **** 	case U8_U8_S32:
  92:Ourwares/payload_extract.c **** 		if (pmbx->ncan.can.dlc >= 6)
 158              		.loc 1 92 0
 159 009c 4368     		ldr	r3, [r0, #4]
 160 009e 052B     		cmp	r3, #5
 161 00a0 3BD9     		bls	.L11
  93:Ourwares/payload_extract.c **** 		{ 
  94:Ourwares/payload_extract.c **** 			pmbx->mbx.pre8[0] = pmbx->ncan.can.cd.uc[0];
 162              		.loc 1 94 0
 163 00a2 037A     		ldrb	r3, [r0, #8]	@ zero_extendqisi2
 164 00a4 80F82830 		strb	r3, [r0, #40]
  95:Ourwares/payload_extract.c **** 			pmbx->mbx.pre8[1] = pmbx->ncan.can.cd.uc[1];
 165              		.loc 1 95 0
 166 00a8 437A     		ldrb	r3, [r0, #9]	@ zero_extendqisi2
 167 00aa 80F82930 		strb	r3, [r0, #41]
  96:Ourwares/payload_extract.c **** 			// Place [2]-[5] of payload in union 
  97:Ourwares/payload_extract.c **** 			pmbx->mbx.u.i8[0] = pmbx->ncan.can.cd.uc[2];
 168              		.loc 1 97 0
 169 00ae 837A     		ldrb	r3, [r0, #10]	@ zero_extendqisi2
 170 00b0 0376     		strb	r3, [r0, #24]
  98:Ourwares/payload_extract.c **** 			pmbx->mbx.u.i8[1] = pmbx->ncan.can.cd.uc[3];
 171              		.loc 1 98 0
 172 00b2 C37A     		ldrb	r3, [r0, #11]	@ zero_extendqisi2
 173 00b4 4376     		strb	r3, [r0, #25]
  99:Ourwares/payload_extract.c **** 			pmbx->mbx.u.i8[2] = pmbx->ncan.can.cd.uc[4];
 174              		.loc 1 99 0
 175 00b6 037B     		ldrb	r3, [r0, #12]	@ zero_extendqisi2
 176 00b8 8376     		strb	r3, [r0, #26]
 100:Ourwares/payload_extract.c **** 			pmbx->mbx.u.i8[3] = pmbx->ncan.can.cd.uc[5];
 177              		.loc 1 100 0
 178 00ba 437B     		ldrb	r3, [r0, #13]	@ zero_extendqisi2
 179 00bc C376     		strb	r3, [r0, #27]
 101:Ourwares/payload_extract.c **** 			pmbx->ctr +=1 ;		
 180              		.loc 1 101 0
 181 00be 436B     		ldr	r3, [r0, #52]
 182 00c0 0133     		adds	r3, r3, #1
 183 00c2 4363     		str	r3, [r0, #52]
 184 00c4 29E0     		b	.L11
 185              	.L10:
ARM GAS  /tmp/cc71fq4T.s 			page 6


 102:Ourwares/payload_extract.c **** 		}
 103:Ourwares/payload_extract.c **** 		break;
 104:Ourwares/payload_extract.c **** 	case U8_U8_U8_U32:
 105:Ourwares/payload_extract.c **** 		if (pmbx->ncan.can.dlc >= 7)
 186              		.loc 1 105 0
 187 00c6 4368     		ldr	r3, [r0, #4]
 188 00c8 062B     		cmp	r3, #6
 189 00ca 26D9     		bls	.L11
 106:Ourwares/payload_extract.c **** 		{ 
 107:Ourwares/payload_extract.c **** 			pmbx->mbx.pre8[0] = pmbx->ncan.can.cd.uc[0];
 190              		.loc 1 107 0
 191 00cc 037A     		ldrb	r3, [r0, #8]	@ zero_extendqisi2
 192 00ce 80F82830 		strb	r3, [r0, #40]
 108:Ourwares/payload_extract.c **** 			pmbx->mbx.pre8[1] = pmbx->ncan.can.cd.uc[1];
 193              		.loc 1 108 0
 194 00d2 437A     		ldrb	r3, [r0, #9]	@ zero_extendqisi2
 195 00d4 80F82930 		strb	r3, [r0, #41]
 109:Ourwares/payload_extract.c **** 			pmbx->mbx.pre8[2] = pmbx->ncan.can.cd.uc[2];
 196              		.loc 1 109 0
 197 00d8 837A     		ldrb	r3, [r0, #10]	@ zero_extendqisi2
 198 00da 80F82A30 		strb	r3, [r0, #42]
 110:Ourwares/payload_extract.c **** 			// Place [2]-[5] of payload in union 
 111:Ourwares/payload_extract.c **** 			pmbx->mbx.u.i8[0] = pmbx->ncan.can.cd.uc[3];
 199              		.loc 1 111 0
 200 00de C37A     		ldrb	r3, [r0, #11]	@ zero_extendqisi2
 201 00e0 0376     		strb	r3, [r0, #24]
 112:Ourwares/payload_extract.c **** 			pmbx->mbx.u.i8[1] = pmbx->ncan.can.cd.uc[4];
 202              		.loc 1 112 0
 203 00e2 037B     		ldrb	r3, [r0, #12]	@ zero_extendqisi2
 204 00e4 4376     		strb	r3, [r0, #25]
 113:Ourwares/payload_extract.c **** 			pmbx->mbx.u.i8[2] = pmbx->ncan.can.cd.uc[5];
 205              		.loc 1 113 0
 206 00e6 437B     		ldrb	r3, [r0, #13]	@ zero_extendqisi2
 207 00e8 8376     		strb	r3, [r0, #26]
 114:Ourwares/payload_extract.c **** 			pmbx->mbx.u.i8[3] = pmbx->ncan.can.cd.uc[6];
 208              		.loc 1 114 0
 209 00ea 837B     		ldrb	r3, [r0, #14]	@ zero_extendqisi2
 210 00ec C376     		strb	r3, [r0, #27]
 115:Ourwares/payload_extract.c **** 			pmbx->ctr +=1 ;		
 211              		.loc 1 115 0
 212 00ee 436B     		ldr	r3, [r0, #52]
 213 00f0 0133     		adds	r3, r3, #1
 214 00f2 4363     		str	r3, [r0, #52]
 215 00f4 11E0     		b	.L11
 216              	.L5:
 116:Ourwares/payload_extract.c **** 		}
 117:Ourwares/payload_extract.c **** 		break;
 118:Ourwares/payload_extract.c **** 	case FF_FF:		// Two four byte readings
 119:Ourwares/payload_extract.c **** 	case U32_U32:
 120:Ourwares/payload_extract.c **** 	case S32_S32:
 121:Ourwares/payload_extract.c **** 		if (pmbx->ncan.can.dlc >= 8)
 217              		.loc 1 121 0
 218 00f6 4368     		ldr	r3, [r0, #4]
 219 00f8 072B     		cmp	r3, #7
 220 00fa 0ED9     		bls	.L11
 122:Ourwares/payload_extract.c **** 		{ // Place [0]-[7] of payload in union 
 123:Ourwares/payload_extract.c **** 			pmbx->mbx.u.i64 = pmbx->ncan.can.cd.ull;
ARM GAS  /tmp/cc71fq4T.s 			page 7


 221              		.loc 1 123 0
 222 00fc D0E90223 		ldrd	r2, [r0, #8]
 223 0100 C0E90623 		strd	r2, [r0, #24]
 124:Ourwares/payload_extract.c **** 			pmbx->ctr +=1 ;
 224              		.loc 1 124 0
 225 0104 436B     		ldr	r3, [r0, #52]
 226 0106 0133     		adds	r3, r3, #1
 227 0108 4363     		str	r3, [r0, #52]
 228 010a 06E0     		b	.L11
 229              	.L2:
 125:Ourwares/payload_extract.c **** 		}
 126:Ourwares/payload_extract.c **** 		break;	
 127:Ourwares/payload_extract.c **** 
 128:Ourwares/payload_extract.c **** 	// Payload type not implemented
 129:Ourwares/payload_extract.c **** 	case UNDEF:
 130:Ourwares/payload_extract.c **** 	default: 
 131:Ourwares/payload_extract.c **** 		{ // Place [0]-[7] of payload in union 
 132:Ourwares/payload_extract.c **** 			pmbx->mbx.u.i64 = pmbx->ncan.can.cd.ull;
 230              		.loc 1 132 0
 231 010c D0E90223 		ldrd	r2, [r0, #8]
 232 0110 C0E90623 		strd	r2, [r0, #24]
 133:Ourwares/payload_extract.c **** 			pmbx->ctr +=1 ;
 233              		.loc 1 133 0
 234 0114 436B     		ldr	r3, [r0, #52]
 235 0116 0133     		adds	r3, r3, #1
 236 0118 4363     		str	r3, [r0, #52]
 237              	.L11:
 134:Ourwares/payload_extract.c **** 		}
 135:Ourwares/payload_extract.c **** 		break;	
 136:Ourwares/payload_extract.c **** 	}
 137:Ourwares/payload_extract.c **** 
 138:Ourwares/payload_extract.c **** 	/*  Copy struct to update CAN msg */
 139:Ourwares/payload_extract.c **** 	pmbx->ncan = *pncan; 
 238              		.loc 1 139 0
 239 011a 0446     		mov	r4, r0
 240 011c 0D46     		mov	r5, r1
 241 011e 0FCD     		ldmia	r5!, {r0, r1, r2, r3}
 242              	.LVL1:
 243 0120 0FC4     		stmia	r4!, {r0, r1, r2, r3}
 244              	.LVL2:
 245 0122 95E80300 		ldmia	r5, {r0, r1}
 246 0126 84E80300 		stmia	r4, {r0, r1}
 140:Ourwares/payload_extract.c **** 
 141:Ourwares/payload_extract.c **** 	return;
 142:Ourwares/payload_extract.c **** }
 247              		.loc 1 142 0
 248 012a 30BC     		pop	{r4, r5}
 249              	.LCFI1:
 250              		.cfi_restore 5
 251              		.cfi_restore 4
 252              		.cfi_def_cfa_offset 0
 253              	.LVL3:
 254 012c 7047     		bx	lr
 255              		.cfi_endproc
 256              	.LFE129:
 258 012e 00BF     		.text
 259              	.Letext0:
ARM GAS  /tmp/cc71fq4T.s 			page 8


 260              		.file 2 "/home/deh/launchpad/gcc-arm-none-eabi-5_4-2016q3/arm-none-eabi/include/machine/_default_t
 261              		.file 3 "/home/deh/launchpad/gcc-arm-none-eabi-5_4-2016q3/arm-none-eabi/include/sys/_stdint.h"
 262              		.file 4 "Drivers/CMSIS/Device/ST/STM32F4xx/Include/stm32f407xx.h"
 263              		.file 5 "Drivers/CMSIS/Device/ST/STM32F4xx/Include/stm32f4xx.h"
 264              		.file 6 "Drivers/STM32F4xx_HAL_Driver/Inc/stm32f4xx_hal_can.h"
 265              		.file 7 "Ourwares/common_misc.h"
 266              		.file 8 "Ourwares/common_can.h"
 267              		.file 9 "Middlewares/Third_Party/FreeRTOS/Source/include/task.h"
 268              		.file 10 "Middlewares/Third_Party/FreeRTOS/Source/CMSIS_RTOS/cmsis_os.h"
 269              		.file 11 "Ourwares/can_iface.h"
 270              		.file 12 "Ourwares/MailboxTask.h"
 271              		.file 13 "Drivers/CMSIS/Include/core_cm4.h"
ARM GAS  /tmp/cc71fq4T.s 			page 9

